;
; Pass 0
;
0000: 0   :              l1:bcc l1
0000: 0 2 : 90 fe        l1:bcc l1
0002: 2 2 : b0 fc        bcs l1
0004: 4 2 : f0 fa        beq l1
0006: 6 2 : 30 f8        bmi l1
0008: 8 2 : d0 f6        bne l1
000a: 10 2 : 10 f4       bpl l1
000c: 12 2 : 50 f2       bvc l1
000e: 14 2 : 70 f0       bvs l1
0010: 16 2 : 69 00       adc #@(- 1 1)
0012: 18 3 : 65 12       adc $12
0014: 21 4 : 75 12       adc $12,x
0016: 25 4 : 6d 34 12    adc $1234
0019: 29 4 : 7d 34 12    adc $1234,x
001c: 33 4 : 79 34 12    adc $1234,y
001f: 37 6 : 61 12       adc ($12,x)
0021: 43 5 : 71 12       adc ($12),y
0023: 48 2 : 29 00       and #0
0025: 50 3 : 25 12       and $12
0027: 53 4 : 35 12       and $12,x
0029: 57 4 : 2d 34 12    and $1234
002c: 61 4 : 3d 34 12    and $1234,x
002f: 65 4 : 39 34 12    and $1234,y
0032: 69 6 : 21 12       and ($12,x)
0034: 75 5 : 31 12       and ($12),y
0036: 80 2 : 0a          asl
0037: 82 5 : 06 12       asl $12
0039: 87 6 : 16 12       asl $12,x
003b: 93 6 : 0e 34 12    asl $1234
003e: 99 7 : 1e 34 12    asl $1234,x
0041: 106 7 : 00         brk
0042: 113 3 : 24 12      bit $12
0044: 116 4 : 2c 34 12   bit $1234
0047: 120 2 : 18         clc
0048: 122 2 : d8         cld
0049: 124 2 : 58         cli
004a: 126 2 : b8         clv
004b: 128 2 : c9 00      cmp #0
004d: 130 3 : c5 12      cmp $12
004f: 133 4 : d5 12      cmp $12,x
0051: 137 4 : cd 34 12   cmp $1234
0054: 141 4 : dd 34 12   cmp $1234,x
0057: 145 4 : d9 34 12   cmp $1234,y
005a: 149 6 : c1 12      cmp ($12,x)
005c: 155 5 : d1 12      cmp ($12),y
005e: 160 2 : e0 00      cpx #0
0060: 162 3 : e4 12      cpx $12
0062: 165 4 : ec 34 12   cpx $1234
0065: 169 2 : c0 00      cpy #0
0067: 171 3 : c4 12      cpy $12
0069: 174 4 : cc 34 12   cpy $1234
006c: 178 5 : c6 12      dec $12
006e: 183 6 : d6 12      dec $12,x
0070: 189 6 : ce 34 12   dec $1234
0073: 195 7 : de 34 12   dec $1234,x
0076: 202 2 : ca         dex
0077: 204 2 : 88         dey
0078: 206 2 : 49 00      eor #0
007a: 208 3 : 45 12      eor $12
007c: 211 4 : 55 12      eor $12,x
007e: 215 4 : 4d 34 12   eor $1234
0081: 219 4 : 5d 34 12   eor $1234,x
0084: 223 4 : 59 34 12   eor $1234,y
0087: 227 6 : 41 12      eor ($12,x)
0089: 233 5 : 51 12      eor ($12),y
008b: 238 5 : e6 12      inc $12
008d: 243 6 : f6 12      inc $12,x
008f: 249 6 : ee 34 12   inc $1234
0092: 255 7 : fe 34 12   inc $1234,x
0095: 262 2 : e8         inx
0096: 264 2 : c8         iny
0097: 266 4 : 4c 34 12   jmp $1234
009a: 270 5 : 6c 34 12   jmp ($1234)
009d: 275 6 : 20 34 12   jsr $1234
00a0: 281 2 : a9 00      lda #0
00a2: 283 3 : a5 12      lda $12
00a4: 286 4 : b5 12      lda $12,x
00a6: 290 4 : ad 34 12   lda $1234
00a9: 294 4 : bd 34 12   lda $1234,x
00ac: 298 4 : b9 34 12   lda $1234,y
00af: 302 6 : a1 12      lda ($12,x)
00b1: 308 5 : b1 12      lda ($12),y
00b3: 313 2 : a2 00      ldx #0
00b5: 315 3 : a6 12      ldx $12
00b7: 318 4 : b6 12      ldx $12,y
00b9: 322 4 : ae 34 12   ldx $1234
00bc: 326 4 : be 34 12   ldx $1234,y
00bf: 330 2 : a0 00      ldy #0
00c1: 332 3 : a4 12      ldy $12
00c3: 335 4 : b4 12      ldy $12,x
00c5: 339 4 : ac 34 12   ldy $1234
00c8: 343 4 : bc 34 12   ldy $1234,x
00cb: 347 2 : 4a         lsr
00cc: 349 5 : 46 12      lsr $12
00ce: 354 6 : 56 12      lsr $12,x
00d0: 360 6 : 4e 34 12   lsr $1234
00d3: 366 7 : 5e 34 12   lsr $1234,x
00d6: 373 2 : ea         nop
00d7: 375 2 : 09 00      ora #0
00d9: 377 3 : 05 12      ora $12
00db: 380 4 : 15 12      ora $12,x
00dd: 384 4 : 0d 34 12   ora $1234
00e0: 388 4 : 1d 34 12   ora $1234,x
00e3: 392 4 : 19 34 12   ora $1234,y
00e6: 396 6 : 01 12      ora ($12,x)
00e8: 402 5 : 11 12      ora ($12),y
00ea: 407 3 : 48         pha
00eb: 410 3 : 08         php
00ec: 413 4 : 68         pla
00ed: 417 4 : 28         plp
00ee: 421 2 : 2a         rol
00ef: 423 5 : 26 12      rol $12
00f1: 428 6 : 36 12      rol $12,x
00f3: 434 6 : 2e 34 12   rol $1234
00f6: 440 7 : 3e 34 12   rol $1234,x
00f9: 447 2 : 6a         ror
00fa: 449 5 : 66 12      ror $12
00fc: 454 6 : 76 12      ror $12,x
00fe: 460 6 : 6e 34 12   ror $1234
0101: 466 7 : 7e 34 12   ror $1234,x
0104: 473 6 : 40         rti
0105: 479 6 : 60         rts
0106: 485 2 : e9 00      sbc #0
0108: 487 3 : e5 12      sbc $12
010a: 490 4 : f5 12      sbc $12,x
010c: 494 4 : ed 34 12   sbc $1234
010f: 498 4 : fd 34 12   sbc $1234,x
0112: 502 4 : f9 34 12   sbc $1234,y
0115: 506 6 : e1 12      sbc ($12,x)
0117: 512 5 : f1 12      sbc ($12),y
0119: 517 2 : 38         sec
011a: 519 2 : 78         sei
011b: 521 3 : 85 12      sta $12
011d: 524 4 : 95 12      sta $12,x
011f: 528 4 : 8d 34 12   sta $1234
0122: 532 4 : 9d 34 12   sta $1234,x
0125: 536 4 : 99 34 12   sta $1234,y
0128: 540 6 : 81 12      sta ($12,x)
012a: 546 5 : 91 12      sta ($12),y
012c: 551 3 : 86 12      stx $12
012e: 554 4 : 96 12      stx $12,y
0130: 558 4 : 8e 34 12   stx $1234
0133: 562 3 : 84 12      sty $12
0135: 565 4 : 94 12      sty $12,x
0137: 569 4 : 8c 34 12   sty $1234
013a: 573 2 : aa         tax
013b: 575 2 : a8         tay
013c: 577 2 : ba         tsx
013d: 579 2 : 8a         txa
013e: 581 2 : 9a         txs
013f: 583 2 : 98         tya
;
; Pass 1
;
0000: 0   :              l1:bcc l1
0000: 0 2 : 90 fe        l1:bcc l1
0002: 2 2 : b0 fc        bcs l1
0004: 4 2 : f0 fa        beq l1
0006: 6 2 : 30 f8        bmi l1
0008: 8 2 : d0 f6        bne l1
000a: 10 2 : 10 f4       bpl l1
000c: 12 2 : 50 f2       bvc l1
000e: 14 2 : 70 f0       bvs l1
0010: 16 2 : 69 00       adc #@(- 1 1)
0012: 18 3 : 65 12       adc $12
0014: 21 4 : 75 12       adc $12,x
0016: 25 4 : 6d 34 12    adc $1234
0019: 29 4 : 7d 34 12    adc $1234,x
001c: 33 4 : 79 34 12    adc $1234,y
001f: 37 6 : 61 12       adc ($12,x)
0021: 43 5 : 71 12       adc ($12),y
0023: 48 2 : 29 00       and #0
0025: 50 3 : 25 12       and $12
0027: 53 4 : 35 12       and $12,x
0029: 57 4 : 2d 34 12    and $1234
002c: 61 4 : 3d 34 12    and $1234,x
002f: 65 4 : 39 34 12    and $1234,y
0032: 69 6 : 21 12       and ($12,x)
0034: 75 5 : 31 12       and ($12),y
0036: 80 2 : 0a          asl
0037: 82 5 : 06 12       asl $12
0039: 87 6 : 16 12       asl $12,x
003b: 93 6 : 0e 34 12    asl $1234
003e: 99 7 : 1e 34 12    asl $1234,x
0041: 106 7 : 00         brk
0042: 113 3 : 24 12      bit $12
0044: 116 4 : 2c 34 12   bit $1234
0047: 120 2 : 18         clc
0048: 122 2 : d8         cld
0049: 124 2 : 58         cli
004a: 126 2 : b8         clv
004b: 128 2 : c9 00      cmp #0
004d: 130 3 : c5 12      cmp $12
004f: 133 4 : d5 12      cmp $12,x
0051: 137 4 : cd 34 12   cmp $1234
0054: 141 4 : dd 34 12   cmp $1234,x
0057: 145 4 : d9 34 12   cmp $1234,y
005a: 149 6 : c1 12      cmp ($12,x)
005c: 155 5 : d1 12      cmp ($12),y
005e: 160 2 : e0 00      cpx #0
0060: 162 3 : e4 12      cpx $12
0062: 165 4 : ec 34 12   cpx $1234
0065: 169 2 : c0 00      cpy #0
0067: 171 3 : c4 12      cpy $12
0069: 174 4 : cc 34 12   cpy $1234
006c: 178 5 : c6 12      dec $12
006e: 183 6 : d6 12      dec $12,x
0070: 189 6 : ce 34 12   dec $1234
0073: 195 7 : de 34 12   dec $1234,x
0076: 202 2 : ca         dex
0077: 204 2 : 88         dey
0078: 206 2 : 49 00      eor #0
007a: 208 3 : 45 12      eor $12
007c: 211 4 : 55 12      eor $12,x
007e: 215 4 : 4d 34 12   eor $1234
0081: 219 4 : 5d 34 12   eor $1234,x
0084: 223 4 : 59 34 12   eor $1234,y
0087: 227 6 : 41 12      eor ($12,x)
0089: 233 5 : 51 12      eor ($12),y
008b: 238 5 : e6 12      inc $12
008d: 243 6 : f6 12      inc $12,x
008f: 249 6 : ee 34 12   inc $1234
0092: 255 7 : fe 34 12   inc $1234,x
0095: 262 2 : e8         inx
0096: 264 2 : c8         iny
0097: 266 4 : 4c 34 12   jmp $1234
009a: 270 5 : 6c 34 12   jmp ($1234)
009d: 275 6 : 20 34 12   jsr $1234
00a0: 281 2 : a9 00      lda #0
00a2: 283 3 : a5 12      lda $12
00a4: 286 4 : b5 12      lda $12,x
00a6: 290 4 : ad 34 12   lda $1234
00a9: 294 4 : bd 34 12   lda $1234,x
00ac: 298 4 : b9 34 12   lda $1234,y
00af: 302 6 : a1 12      lda ($12,x)
00b1: 308 5 : b1 12      lda ($12),y
00b3: 313 2 : a2 00      ldx #0
00b5: 315 3 : a6 12      ldx $12
00b7: 318 4 : b6 12      ldx $12,y
00b9: 322 4 : ae 34 12   ldx $1234
00bc: 326 4 : be 34 12   ldx $1234,y
00bf: 330 2 : a0 00      ldy #0
00c1: 332 3 : a4 12      ldy $12
00c3: 335 4 : b4 12      ldy $12,x
00c5: 339 4 : ac 34 12   ldy $1234
00c8: 343 4 : bc 34 12   ldy $1234,x
00cb: 347 2 : 4a         lsr
00cc: 349 5 : 46 12      lsr $12
00ce: 354 6 : 56 12      lsr $12,x
00d0: 360 6 : 4e 34 12   lsr $1234
00d3: 366 7 : 5e 34 12   lsr $1234,x
00d6: 373 2 : ea         nop
00d7: 375 2 : 09 00      ora #0
00d9: 377 3 : 05 12      ora $12
00db: 380 4 : 15 12      ora $12,x
00dd: 384 4 : 0d 34 12   ora $1234
00e0: 388 4 : 1d 34 12   ora $1234,x
00e3: 392 4 : 19 34 12   ora $1234,y
00e6: 396 6 : 01 12      ora ($12,x)
00e8: 402 5 : 11 12      ora ($12),y
00ea: 407 3 : 48         pha
00eb: 410 3 : 08         php
00ec: 413 4 : 68         pla
00ed: 417 4 : 28         plp
00ee: 421 2 : 2a         rol
00ef: 423 5 : 26 12      rol $12
00f1: 428 6 : 36 12      rol $12,x
00f3: 434 6 : 2e 34 12   rol $1234
00f6: 440 7 : 3e 34 12   rol $1234,x
00f9: 447 2 : 6a         ror
00fa: 449 5 : 66 12      ror $12
00fc: 454 6 : 76 12      ror $12,x
00fe: 460 6 : 6e 34 12   ror $1234
0101: 466 7 : 7e 34 12   ror $1234,x
0104: 473 6 : 40         rti
0105: 479 6 : 60         rts
0106: 485 2 : e9 00      sbc #0
0108: 487 3 : e5 12      sbc $12
010a: 490 4 : f5 12      sbc $12,x
010c: 494 4 : ed 34 12   sbc $1234
010f: 498 4 : fd 34 12   sbc $1234,x
0112: 502 4 : f9 34 12   sbc $1234,y
0115: 506 6 : e1 12      sbc ($12,x)
0117: 512 5 : f1 12      sbc ($12),y
0119: 517 2 : 38         sec
011a: 519 2 : 78         sei
011b: 521 3 : 85 12      sta $12
011d: 524 4 : 95 12      sta $12,x
011f: 528 4 : 8d 34 12   sta $1234
0122: 532 4 : 9d 34 12   sta $1234,x
0125: 536 4 : 99 34 12   sta $1234,y
0128: 540 6 : 81 12      sta ($12,x)
012a: 546 5 : 91 12      sta ($12),y
012c: 551 3 : 86 12      stx $12
012e: 554 4 : 96 12      stx $12,y
0130: 558 4 : 8e 34 12   stx $1234
0133: 562 3 : 84 12      sty $12
0135: 565 4 : 94 12      sty $12,x
0137: 569 4 : 8c 34 12   sty $1234
013a: 573 2 : aa         tax
013b: 575 2 : a8         tay
013c: 577 2 : ba         tsx
013d: 579 2 : 8a         txa
013e: 581 2 : 9a         txs
013f: 583 2 : 98         tya
;
; Pass 2
;
0000: 0   :              l1:bcc l1
0000: 0 2 : 90 fe        l1:bcc l1
0002: 2 2 : b0 fc        bcs l1
0004: 4 2 : f0 fa        beq l1
0006: 6 2 : 30 f8        bmi l1
0008: 8 2 : d0 f6        bne l1
000a: 10 2 : 10 f4       bpl l1
000c: 12 2 : 50 f2       bvc l1
000e: 14 2 : 70 f0       bvs l1
0010: 16 2 : 69 00       adc #@(- 1 1)
0012: 18 3 : 65 12       adc $12
0014: 21 4 : 75 12       adc $12,x
0016: 25 4 : 6d 34 12    adc $1234
0019: 29 4 : 7d 34 12    adc $1234,x
001c: 33 4 : 79 34 12    adc $1234,y
001f: 37 6 : 61 12       adc ($12,x)
0021: 43 5 : 71 12       adc ($12),y
0023: 48 2 : 29 00       and #0
0025: 50 3 : 25 12       and $12
0027: 53 4 : 35 12       and $12,x
0029: 57 4 : 2d 34 12    and $1234
002c: 61 4 : 3d 34 12    and $1234,x
002f: 65 4 : 39 34 12    and $1234,y
0032: 69 6 : 21 12       and ($12,x)
0034: 75 5 : 31 12       and ($12),y
0036: 80 2 : 0a          asl
0037: 82 5 : 06 12       asl $12
0039: 87 6 : 16 12       asl $12,x
003b: 93 6 : 0e 34 12    asl $1234
003e: 99 7 : 1e 34 12    asl $1234,x
0041: 106 7 : 00         brk
0042: 113 3 : 24 12      bit $12
0044: 116 4 : 2c 34 12   bit $1234
0047: 120 2 : 18         clc
0048: 122 2 : d8         cld
0049: 124 2 : 58         cli
004a: 126 2 : b8         clv
004b: 128 2 : c9 00      cmp #0
004d: 130 3 : c5 12      cmp $12
004f: 133 4 : d5 12      cmp $12,x
0051: 137 4 : cd 34 12   cmp $1234
0054: 141 4 : dd 34 12   cmp $1234,x
0057: 145 4 : d9 34 12   cmp $1234,y
005a: 149 6 : c1 12      cmp ($12,x)
005c: 155 5 : d1 12      cmp ($12),y
005e: 160 2 : e0 00      cpx #0
0060: 162 3 : e4 12      cpx $12
0062: 165 4 : ec 34 12   cpx $1234
0065: 169 2 : c0 00      cpy #0
0067: 171 3 : c4 12      cpy $12
0069: 174 4 : cc 34 12   cpy $1234
006c: 178 5 : c6 12      dec $12
006e: 183 6 : d6 12      dec $12,x
0070: 189 6 : ce 34 12   dec $1234
0073: 195 7 : de 34 12   dec $1234,x
0076: 202 2 : ca         dex
0077: 204 2 : 88         dey
0078: 206 2 : 49 00      eor #0
007a: 208 3 : 45 12      eor $12
007c: 211 4 : 55 12      eor $12,x
007e: 215 4 : 4d 34 12   eor $1234
0081: 219 4 : 5d 34 12   eor $1234,x
0084: 223 4 : 59 34 12   eor $1234,y
0087: 227 6 : 41 12      eor ($12,x)
0089: 233 5 : 51 12      eor ($12),y
008b: 238 5 : e6 12      inc $12
008d: 243 6 : f6 12      inc $12,x
008f: 249 6 : ee 34 12   inc $1234
0092: 255 7 : fe 34 12   inc $1234,x
0095: 262 2 : e8         inx
0096: 264 2 : c8         iny
0097: 266 4 : 4c 34 12   jmp $1234
009a: 270 5 : 6c 34 12   jmp ($1234)
009d: 275 6 : 20 34 12   jsr $1234
00a0: 281 2 : a9 00      lda #0
00a2: 283 3 : a5 12      lda $12
00a4: 286 4 : b5 12      lda $12,x
00a6: 290 4 : ad 34 12   lda $1234
00a9: 294 4 : bd 34 12   lda $1234,x
00ac: 298 4 : b9 34 12   lda $1234,y
00af: 302 6 : a1 12      lda ($12,x)
00b1: 308 5 : b1 12      lda ($12),y
00b3: 313 2 : a2 00      ldx #0
00b5: 315 3 : a6 12      ldx $12
00b7: 318 4 : b6 12      ldx $12,y
00b9: 322 4 : ae 34 12   ldx $1234
00bc: 326 4 : be 34 12   ldx $1234,y
00bf: 330 2 : a0 00      ldy #0
00c1: 332 3 : a4 12      ldy $12
00c3: 335 4 : b4 12      ldy $12,x
00c5: 339 4 : ac 34 12   ldy $1234
00c8: 343 4 : bc 34 12   ldy $1234,x
00cb: 347 2 : 4a         lsr
00cc: 349 5 : 46 12      lsr $12
00ce: 354 6 : 56 12      lsr $12,x
00d0: 360 6 : 4e 34 12   lsr $1234
00d3: 366 7 : 5e 34 12   lsr $1234,x
00d6: 373 2 : ea         nop
00d7: 375 2 : 09 00      ora #0
00d9: 377 3 : 05 12      ora $12
00db: 380 4 : 15 12      ora $12,x
00dd: 384 4 : 0d 34 12   ora $1234
00e0: 388 4 : 1d 34 12   ora $1234,x
00e3: 392 4 : 19 34 12   ora $1234,y
00e6: 396 6 : 01 12      ora ($12,x)
00e8: 402 5 : 11 12      ora ($12),y
00ea: 407 3 : 48         pha
00eb: 410 3 : 08         php
00ec: 413 4 : 68         pla
00ed: 417 4 : 28         plp
00ee: 421 2 : 2a         rol
00ef: 423 5 : 26 12      rol $12
00f1: 428 6 : 36 12      rol $12,x
00f3: 434 6 : 2e 34 12   rol $1234
00f6: 440 7 : 3e 34 12   rol $1234,x
00f9: 447 2 : 6a         ror
00fa: 449 5 : 66 12      ror $12
00fc: 454 6 : 76 12      ror $12,x
00fe: 460 6 : 6e 34 12   ror $1234
0101: 466 7 : 7e 34 12   ror $1234,x
0104: 473 6 : 40         rti
0105: 479 6 : 60         rts
0106: 485 2 : e9 00      sbc #0
0108: 487 3 : e5 12      sbc $12
010a: 490 4 : f5 12      sbc $12,x
010c: 494 4 : ed 34 12   sbc $1234
010f: 498 4 : fd 34 12   sbc $1234,x
0112: 502 4 : f9 34 12   sbc $1234,y
0115: 506 6 : e1 12      sbc ($12,x)
0117: 512 5 : f1 12      sbc ($12),y
0119: 517 2 : 38         sec
011a: 519 2 : 78         sei
011b: 521 3 : 85 12      sta $12
011d: 524 4 : 95 12      sta $12,x
011f: 528 4 : 8d 34 12   sta $1234
0122: 532 4 : 9d 34 12   sta $1234,x
0125: 536 4 : 99 34 12   sta $1234,y
0128: 540 6 : 81 12      sta ($12,x)
012a: 546 5 : 91 12      sta ($12),y
012c: 551 3 : 86 12      stx $12
012e: 554 4 : 96 12      stx $12,y
0130: 558 4 : 8e 34 12   stx $1234
0133: 562 3 : 84 12      sty $12
0135: 565 4 : 94 12      sty $12,x
0137: 569 4 : 8c 34 12   sty $1234
013a: 573 2 : aa         tax
013b: 575 2 : a8         tay
013c: 577 2 : ba         tsx
013d: 579 2 : 8a         txa
013e: 581 2 : 9a         txs
013f: 583 2 : 98         tya
